; Function Attrs: alwaysinline norecurse nounwind uwtable
define internal void @_ZNK8LightGBM18RegressionMAPELOSS12GetGradientsEPKdPfS3_.omp_outlined.82(ptr noalias noundef readonly captures(none) %0, ptr noalias readnone captures(none) %1, ptr noundef readonly captures(none) %2, ptr noundef nonnull readonly align 8 captures(none) dereferenceable(8) %3, ptr noundef nonnull readonly align 8 captures(none) dereferenceable(8) %4, ptr noundef nonnull readonly align 8 captures(none) dereferenceable(8) %5) #14 {
  %7 = alloca i32, align 4
  %8 = alloca i32, align 4
  %9 = alloca i32, align 4
  %10 = alloca i32, align 4
  %11 = getelementptr inbounds nuw i8, ptr %2, i64 12
  %12 = load i32, ptr %11, align 4, !tbaa !147
  %13 = icmp sgt i32 %12, 0
  br i1 %13, label %14, label %50

14:                                               ; preds = %6
  %15 = add nsw i32 %12, -1
  call void @llvm.lifetime.start.p0(i64 4, ptr nonnull %7) #15
  store i32 0, ptr %7, align 4, !tbaa !127
  call void @llvm.lifetime.start.p0(i64 4, ptr nonnull %8) #15
  store i32 %15, ptr %8, align 4, !tbaa !127
  call void @llvm.lifetime.start.p0(i64 4, ptr nonnull %9) #15
  store i32 1, ptr %9, align 4, !tbaa !127
  call void @llvm.lifetime.start.p0(i64 4, ptr nonnull %10) #15
  store i32 0, ptr %10, align 4, !tbaa !127
  %16 = load i32, ptr %0, align 4, !tbaa !127
  call void @__kmpc_for_static_init_4(ptr nonnull @1, i32 %16, i32 34, ptr nonnull %10, ptr nonnull %7, ptr nonnull %8, ptr nonnull %9, i32 1, i32 1)
  %17 = load i32, ptr %8, align 4, !tbaa !127
  %18 = call i32 @llvm.smin.i32(i32 %17, i32 %15)
  store i32 %18, ptr %8, align 4, !tbaa !127
  %19 = load i32, ptr %7, align 4, !tbaa !127
  %.not20 = icmp sgt i32 %19, %18
  br i1 %.not20, label %._crit_edge, label %.lr.ph

.lr.ph:                                           ; preds = %14
  %20 = load ptr, ptr %3, align 8, !tbaa !152
  %21 = getelementptr inbounds nuw i8, ptr %2, i64 16
  %22 = load ptr, ptr %21, align 8, !tbaa !148
  %23 = getelementptr inbounds nuw i8, ptr %2, i64 64
  %24 = load ptr, ptr %23, align 8, !tbaa !95
  %25 = load ptr, ptr %4, align 8, !tbaa !150
  %26 = getelementptr inbounds nuw i8, ptr %2, i64 24
  %27 = load ptr, ptr %26, align 8, !tbaa !151
  %28 = load ptr, ptr %5, align 8, !tbaa !150
  %29 = sext i32 %19 to i64
  %30 = add nsw i32 %18, 1
  br label %31

31:                                               ; preds = %.lr.ph, %31
  %indvars.iv = phi i64 [ %29, %.lr.ph ], [ %indvars.iv.next, %31 ]
  %32 = getelementptr inbounds double, ptr %20, i64 %indvars.iv
  %33 = load double, ptr %32, align 8, !tbaa !153
  %34 = getelementptr inbounds float, ptr %22, i64 %indvars.iv
  %35 = load float, ptr %34, align 4, !tbaa !175
  %36 = fpext float %35 to double
  %37 = fsub double %33, %36
  %38 = fcmp ogt double %37, 0.000000e+00
  %39 = zext i1 %38 to i32
  %40 = fcmp olt double %37, 0.000000e+00
  %.neg.i = sext i1 %40 to i32
  %41 = add nsw i32 %.neg.i, %39
  %42 = sitofp i32 %41 to float
  %43 = getelementptr inbounds nuw float, ptr %24, i64 %indvars.iv
  %44 = load float, ptr %43, align 4, !tbaa !175
  %45 = fmul float %44, %42
  %46 = getelementptr inbounds float, ptr %25, i64 %indvars.iv
  store float %45, ptr %46, align 4, !tbaa !175
  %47 = getelementptr inbounds float, ptr %27, i64 %indvars.iv
  %48 = load float, ptr %47, align 4, !tbaa !175
  %49 = getelementptr inbounds float, ptr %28, i64 %indvars.iv
  store float %48, ptr %49, align 4, !tbaa !175
  %indvars.iv.next = add nsw i64 %indvars.iv, 1
  %lftr.wideiv = trunc i64 %indvars.iv.next to i32
  %exitcond.not = icmp eq i32 %30, %lftr.wideiv
  br i1 %exitcond.not, label %._crit_edge, label %31

._crit_edge:                                      ; preds = %31, %14
  call void @__kmpc_for_static_fini(ptr nonnull @1, i32 %16)
  call void @llvm.lifetime.end.p0(i64 4, ptr nonnull %10) #15
  call void @llvm.lifetime.end.p0(i64 4, ptr nonnull %9) #15
  call void @llvm.lifetime.end.p0(i64 4, ptr nonnull %8) #15
  call void @llvm.lifetime.end.p0(i64 4, ptr nonnull %7) #15
  br label %50

50:                                               ; preds = %._crit_edge, %6
  ret void
}